; Function Attrs: mustprogress nofree norecurse nosync nounwind willreturn memory(read, inaccessiblemem: none) uwtable
define dso_local noundef double @_ZNK4Luau7CodeGen3X6413IrLoweringX648doubleOpENS0_4IrOpE(ptr noundef nonnull readonly align 8 captures(none) dereferenceable(1440) %0, i32 %1) local_unnamed_addr #4 align 2 {
  %3 = getelementptr inbounds nuw i8, ptr %0, i64 16
  %4 = load ptr, ptr %3, align 8, !tbaa !61
  %5 = getelementptr inbounds nuw i8, ptr %4, i64 48
  %6 = lshr i32 %1, 4
  %7 = zext nneg i32 %6 to i64
  %8 = load ptr, ptr %5, align 8, !tbaa !62
  %9 = getelementptr inbounds nuw %"struct.Luau::CodeGen::IrConst", ptr %8, i64 %7, i32 1
  %10 = load double, ptr %9, align 8, !tbaa !51
  ret double %10
}